	.file	"greetings.c"
	.text
	.section	.rodata
.LC0:
	.string	"Greetings"
.LC1:
	.string	"%s %s\n"
.LC2:
	.string	"Good luck with "
.LC3:
	.string	"%s%s\n"
.LC4:
	.string	"Usage: ./greetings <string>"
.LC5:
	.string	"Wrong number of arguments"
.LC6:
	.string	"%s (%d)\n%s\n"
	.text
	.globl	main
	.type	main, @function
main:
.LFB6:
	.cfi_startproc
	endbr64
	pushq	%rbp
	.cfi_def_cfa_offset 16
	.cfi_offset 6, -16
	movq	%rsp, %rbp
	.cfi_def_cfa_register 6
	subq	$16, %rsp
	movl	%edi, -4(%rbp)
	movq	%rsi, -16(%rbp)
	cmpl	$2, -4(%rbp)
	jne	.L2
	movq	-16(%rbp), %rax
	addq	$8, %rax
	movq	(%rax), %rax
	movq	%rax, %rdx
	leaq	.LC0(%rip), %rax
	movq	%rax, %rsi
	leaq	.LC1(%rip), %rax
	movq	%rax, %rdi
	movl	$0, %eax
	call	printf@PLT
	call	getGoal
	movq	%rax, %rdx
	leaq	.LC2(%rip), %rax
	movq	%rax, %rsi
	leaq	.LC3(%rip), %rax
	movq	%rax, %rdi
	movl	$0, %eax
	call	printf@PLT
	movl	$0, %edi
	call	exit@PLT
.L2:
	movl	-4(%rbp), %eax
	leaq	.LC4(%rip), %rdx
	movq	%rdx, %rcx
	movl	%eax, %edx
	leaq	.LC5(%rip), %rax
	movq	%rax, %rsi
	leaq	.LC6(%rip), %rax
	movq	%rax, %rdi
	movl	$0, %eax
	call	printf@PLT
	movl	$1, %edi
	call	exit@PLT
	.cfi_endproc
.LFE6:
	.size	main, .-main
	.section	.rodata
	.align 8
.LC7:
	.string	"Please tell me your current goal: "
.LC8:
	.string	"%[^\n]s"
	.text
	.globl	getGoal
	.type	getGoal, @function
getGoal:
.LFB7:
	.cfi_startproc
	endbr64
	pushq	%rbp
	.cfi_def_cfa_offset 16
	.cfi_offset 6, -16
	movq	%rsp, %rbp
	.cfi_def_cfa_register 6
	subq	$16, %rsp
	movl	$30, %edi
	call	malloc@PLT
	movq	%rax, -8(%rbp)
	leaq	.LC7(%rip), %rax
	movq	%rax, %rdi
	movl	$0, %eax
	call	printf@PLT
	movq	-8(%rbp), %rax
	movq	%rax, %rsi
	leaq	.LC8(%rip), %rax
	movq	%rax, %rdi
	movl	$0, %eax
	call	__isoc99_scanf@PLT
	movq	-8(%rbp), %rax
	leave
	.cfi_def_cfa 7, 8
	ret
	.cfi_endproc
.LFE7:
	.size	getGoal, .-getGoal
	.ident	"GCC: (Ubuntu 12.2.0-3ubuntu1) 12.2.0"
	.section	.note.GNU-stack,"",@progbits
	.section	.note.gnu.property,"a"
	.align 8
	.long	1f - 0f
	.long	4f - 1f
	.long	5
0:
	.string	"GNU"
1:
	.align 8
	.long	0xc0000002
	.long	3f - 2f
2:
	.long	0x3
3:
	.align 8
4:
